target datalayout = "e-m:e-p270:32:32-p271:32:32-p272:64:64-i64:64-i128:128-f80:128-n8:16:32:64-S128"
target triple = "x86_64-pc-linux-gnu"

%struct.hf_register_info = type { ptr, %struct._header_field_info }
%struct._header_field_info = type { ptr, ptr, i32, i32, ptr, i64, ptr, i32, i32, i32, i32, ptr }
%struct.reassembly_table = type { ptr, ptr, ptr, ptr, ptr }
%struct.reassembly_table_functions = type { ptr, ptr, ptr, ptr, ptr, ptr }

@proto_dcp_etsi = internal global i32 0, align 4
@dcp_etsi_handle = internal global ptr null, align 8
@.str.4 = private unnamed_addr constant [14 x i8] c"dcp-etsi.sync\00", align 1
@af_handle = internal global ptr null, align 8
@pft_handle = internal global ptr null, align 8
@.str.7 = private unnamed_addr constant [10 x i8] c"dcp-af.pt\00", align 1
@tpl_handle = internal global ptr null, align 8
@proto_register_dcp_etsi.hf_edcp = internal global [1 x %struct.hf_register_info] [%struct.hf_register_info { ptr @hf_edcp_sync, %struct._header_field_info { ptr @.str.8, ptr @.str.4, i32 26, i32 0, ptr null, i64 0, ptr @.str.9, i32 -1, i32 0, i32 0, i32 -1, ptr null } }], align 16
@proto_register_dcp_etsi.hf_tpl = internal global [1 x %struct.hf_register_info] [%struct.hf_register_info { ptr @hf_tpl_tlv, %struct._header_field_info { ptr @.str.94, ptr @.str.95, i32 30, i32 0, ptr null, i64 0, ptr @.str.96, i32 -1, i32 0, i32 0, i32 -1, ptr null } }], align 16
@proto_register_dcp_etsi.ett = internal global [6 x ptr] [ptr @ett_edcp, ptr @ett_af, ptr @ett_pft, ptr @ett_tpl, ptr @ett_edcp_fragment, ptr @ett_edcp_fragments], align 16
@.str.101 = private unnamed_addr constant [53 x i8] c"ETSI Distribution & Communication Protocol (for DRM)\00", align 1
@.str.102 = private unnamed_addr constant [11 x i8] c"DCP (ETSI)\00", align 1
@.str.103 = private unnamed_addr constant [9 x i8] c"dcp-etsi\00", align 1
@.str.104 = private unnamed_addr constant [30 x i8] c"DCP Application Framing Layer\00", align 1
@.str.105 = private unnamed_addr constant [7 x i8] c"DCP-AF\00", align 1
@.str.106 = private unnamed_addr constant [7 x i8] c"dcp-af\00", align 1
@proto_af = internal global i32 0, align 4
@.str.107 = private unnamed_addr constant [48 x i8] c"DCP Protection, Fragmentation & Transport Layer\00", align 1
@.str.108 = private unnamed_addr constant [8 x i8] c"DCP-PFT\00", align 1
@.str.109 = private unnamed_addr constant [8 x i8] c"dcp-pft\00", align 1
@proto_pft = internal global i32 0, align 4
@.str.110 = private unnamed_addr constant [21 x i8] c"DCP Tag Packet Layer\00", align 1
@.str.111 = private unnamed_addr constant [8 x i8] c"DCP-TPL\00", align 1
@.str.112 = private unnamed_addr constant [8 x i8] c"dcp-tpl\00", align 1
@proto_tpl = internal global i32 0, align 4
@.str.113 = private unnamed_addr constant [9 x i8] c"DCP Sync\00", align 1
@dcp_dissector_table = internal global ptr null, align 8
@.str.114 = private unnamed_addr constant [20 x i8] c"DCP-AF Payload Type\00", align 1
@af_dissector_table = internal global ptr null, align 8
@.str.115 = private unnamed_addr constant [12 x i8] c"dcp-tpl.ptr\00", align 1
@.str.116 = private unnamed_addr constant [33 x i8] c"DCP-TPL Protocol Type & Revision\00", align 1
@tpl_dissector_table = internal global ptr null, align 8
@dcp_reassembly_table = internal global %struct.reassembly_table zeroinitializer, align 8
@addresses_reassembly_table_functions = external constant %struct.reassembly_table_functions, align 8

; Function Attrs: null_pointer_is_valid sspstrong uwtable
define hidden void @proto_register_dcp_etsi() #0 {
  %1 = alloca ptr, align 8
  call void @llvm.lifetime.start.p0(i64 8, ptr %1) #8
  %2 = call i32 @proto_register_protocol(ptr noundef @.str.101, ptr noundef @.str.102, ptr noundef @.str.103)
  store i32 %2, ptr @proto_dcp_etsi, align 4
  %3 = call i32 @proto_register_protocol(ptr noundef @.str.104, ptr noundef @.str.105, ptr noundef @.str.106)
  store i32 %3, ptr @proto_af, align 4
  %4 = call i32 @proto_register_protocol(ptr noundef @.str.107, ptr noundef @.str.108, ptr noundef @.str.109)
  store i32 %4, ptr @proto_pft, align 4
  %5 = call i32 @proto_register_protocol(ptr noundef @.str.110, ptr noundef @.str.111, ptr noundef @.str.112)
  store i32 %5, ptr @proto_tpl, align 4
  %6 = load i32, ptr @proto_dcp_etsi, align 4
  call void @proto_register_field_array(i32 noundef %6, ptr noundef @proto_register_dcp_etsi.hf_edcp, i32 noundef 1)
  %7 = load i32, ptr @proto_af, align 4
  call void @proto_register_field_array(i32 noundef %7, ptr noundef @proto_register_dcp_etsi.hf_af, i32 noundef 8)
  %8 = load i32, ptr @proto_pft, align 4
  call void @proto_register_field_array(i32 noundef %8, ptr noundef @proto_register_dcp_etsi.hf_pft, i32 noundef 24)
  %9 = load i32, ptr @proto_tpl, align 4
  call void @proto_register_field_array(i32 noundef %9, ptr noundef @proto_register_dcp_etsi.hf_tpl, i32 noundef 1)
  call void @proto_register_subtree_array(ptr noundef @proto_register_dcp_etsi.ett, i32 noundef 6)
  %10 = load i32, ptr @proto_dcp_etsi, align 4
  %11 = call ptr @expert_register_protocol(i32 noundef %10)
  store ptr %11, ptr %1, align 8
  %12 = load ptr, ptr %1, align 8
  call void @expert_register_field_array(ptr noundef %12, ptr noundef @proto_register_dcp_etsi.ei, i32 noundef 2)
  %13 = load i32, ptr @proto_dcp_etsi, align 4
  %14 = call ptr @register_dissector_table(ptr noundef @.str.4, ptr noundef @.str.113, i32 noundef %13, i32 noundef 26, i32 noundef 0)
  store ptr %14, ptr @dcp_dissector_table, align 8
  %15 = load i32, ptr @proto_dcp_etsi, align 4
  %16 = call ptr @register_dissector_table(ptr noundef @.str.7, ptr noundef @.str.114, i32 noundef %15, i32 noundef 4, i32 noundef 1)
  store ptr %16, ptr @af_dissector_table, align 8
  %17 = load i32, ptr @proto_dcp_etsi, align 4
  %18 = call ptr @register_dissector_table(ptr noundef @.str.115, ptr noundef @.str.116, i32 noundef %17, i32 noundef 26, i32 noundef 0)
  store ptr %18, ptr @tpl_dissector_table, align 8
  call void @reassembly_table_register(ptr noundef @dcp_reassembly_table, ptr noundef @addresses_reassembly_table_functions)
  %19 = load i32, ptr @proto_dcp_etsi, align 4
  %20 = call ptr @register_dissector(ptr noundef @.str.103, ptr noundef @dissect_dcp_etsi, i32 noundef %19)
  store ptr %20, ptr @dcp_etsi_handle, align 8
  %21 = load i32, ptr @proto_af, align 4
  %22 = call ptr @register_dissector(ptr noundef @.str.106, ptr noundef @dissect_af, i32 noundef %21)
  store ptr %22, ptr @af_handle, align 8
  %23 = load i32, ptr @proto_pft, align 4
  %24 = call ptr @register_dissector(ptr noundef @.str.109, ptr noundef @dissect_pft, i32 noundef %23)
  store ptr %24, ptr @pft_handle, align 8
  %25 = load i32, ptr @proto_tpl, align 4
  %26 = call ptr @register_dissector(ptr noundef @.str.112, ptr noundef @dissect_tpl, i32 noundef %25)
  store ptr %26, ptr @tpl_handle, align 8
  call void @llvm.lifetime.end.p0(i64 8, ptr %1) #8
  ret void
}