; Function Attrs: null_pointer_is_valid sspstrong uwtable
define hidden void @proto_register_dcp_etsi() local_unnamed_addr #0 {
  %1 = tail call i32 @proto_register_protocol(ptr noundef nonnull @.str.101, ptr noundef nonnull @.str.102, ptr noundef nonnull @.str.103)
  store i32 %1, ptr @proto_dcp_etsi, align 4
  %2 = tail call i32 @proto_register_protocol(ptr noundef nonnull @.str.104, ptr noundef nonnull @.str.105, ptr noundef nonnull @.str.106)
  store i32 %2, ptr @proto_af, align 4
  %3 = tail call i32 @proto_register_protocol(ptr noundef nonnull @.str.107, ptr noundef nonnull @.str.108, ptr noundef nonnull @.str.109)
  store i32 %3, ptr @proto_pft, align 4
  %4 = tail call i32 @proto_register_protocol(ptr noundef nonnull @.str.110, ptr noundef nonnull @.str.111, ptr noundef nonnull @.str.112)
  store i32 %4, ptr @proto_tpl, align 4
  %5 = load i32, ptr @proto_dcp_etsi, align 4
  tail call void @proto_register_field_array(i32 noundef %5, ptr noundef nonnull @proto_register_dcp_etsi.hf_edcp, i32 noundef 1)
  %6 = load i32, ptr @proto_af, align 4
  tail call void @proto_register_field_array(i32 noundef %6, ptr noundef nonnull @proto_register_dcp_etsi.hf_af, i32 noundef 8)
  %7 = load i32, ptr @proto_pft, align 4
  tail call void @proto_register_field_array(i32 noundef %7, ptr noundef nonnull @proto_register_dcp_etsi.hf_pft, i32 noundef 24)
  %8 = load i32, ptr @proto_tpl, align 4
  tail call void @proto_register_field_array(i32 noundef %8, ptr noundef nonnull @proto_register_dcp_etsi.hf_tpl, i32 noundef 1)
  tail call void @proto_register_subtree_array(ptr noundef nonnull @proto_register_dcp_etsi.ett, i32 noundef 6)
  %9 = load i32, ptr @proto_dcp_etsi, align 4
  %10 = tail call ptr @expert_register_protocol(i32 noundef %9)
  tail call void @expert_register_field_array(ptr noundef %10, ptr noundef nonnull @proto_register_dcp_etsi.ei, i32 noundef 2)
  %11 = load i32, ptr @proto_dcp_etsi, align 4
  %12 = tail call ptr @register_dissector_table(ptr noundef nonnull @.str.4, ptr noundef nonnull @.str.113, i32 noundef %11, i32 noundef 26, i32 noundef 0)
  store ptr %12, ptr @dcp_dissector_table, align 8
  %13 = load i32, ptr @proto_dcp_etsi, align 4
  %14 = tail call ptr @register_dissector_table(ptr noundef nonnull @.str.7, ptr noundef nonnull @.str.114, i32 noundef %13, i32 noundef 4, i32 noundef 1)
  store ptr %14, ptr @af_dissector_table, align 8
  %15 = load i32, ptr @proto_dcp_etsi, align 4
  %16 = tail call ptr @register_dissector_table(ptr noundef nonnull @.str.115, ptr noundef nonnull @.str.116, i32 noundef %15, i32 noundef 26, i32 noundef 0)
  store ptr %16, ptr @tpl_dissector_table, align 8
  tail call void @reassembly_table_register(ptr noundef nonnull @dcp_reassembly_table, ptr noundef nonnull @addresses_reassembly_table_functions)
  %17 = load i32, ptr @proto_dcp_etsi, align 4
  %18 = tail call ptr @register_dissector(ptr noundef nonnull @.str.103, ptr noundef nonnull @dissect_dcp_etsi, i32 noundef %17)
  store ptr %18, ptr @dcp_etsi_handle, align 8
  %19 = load i32, ptr @proto_af, align 4
  %20 = tail call ptr @register_dissector(ptr noundef nonnull @.str.106, ptr noundef nonnull @dissect_af, i32 noundef %19)
  store ptr %20, ptr @af_handle, align 8
  %21 = load i32, ptr @proto_pft, align 4
  %22 = tail call ptr @register_dissector(ptr noundef nonnull @.str.109, ptr noundef nonnull @dissect_pft, i32 noundef %21)
  store ptr %22, ptr @pft_handle, align 8
  %23 = load i32, ptr @proto_tpl, align 4
  %24 = tail call ptr @register_dissector(ptr noundef nonnull @.str.112, ptr noundef nonnull @dissect_tpl, i32 noundef %23)
  store ptr %24, ptr @tpl_handle, align 8
  ret void
}